; Function Attrs: nounwind uwtable
define void @lv_image_set_inner_align(ptr noundef %0, i32 noundef %1) local_unnamed_addr #0 {
  %.not = icmp eq ptr %0, null
  br i1 %.not, label %.preheader, label %3

.preheader:                                       ; preds = %2, %.preheader
  br label %.preheader

3:                                                ; preds = %2
  %4 = getelementptr inbounds nuw i8, ptr %0, i64 116
  %5 = load i16, ptr %4, align 4
  %6 = lshr i16 %5, 8
  %7 = and i16 %6, 15
  %8 = zext nneg i16 %7 to i32
  %9 = icmp eq i32 %1, %8
  br i1 %9, label %29, label %10

10:                                               ; preds = %3
  %11 = icmp ne i16 %7, 11
  %12 = and i16 %5, 3840
  %13 = icmp samesign ugt i16 %12, 2560
  %or.cond = select i1 %11, i1 true, i1 %13
  br i1 %or.cond, label %lv_image_set_scale.exit, label %14

14:                                               ; preds = %10
  %15 = getelementptr inbounds nuw i8, ptr %0, i64 100
  %16 = load i32, ptr %15, align 4, !tbaa !20
  %17 = icmp eq i32 %16, 256
  br i1 %17, label %18, label %22

18:                                               ; preds = %14
  %19 = getelementptr inbounds nuw i8, ptr %0, i64 104
  %20 = load i32, ptr %19, align 8, !tbaa !21
  %21 = icmp eq i32 %20, 256
  br i1 %21, label %lv_image_set_scale.exit, label %22

22:                                               ; preds = %18, %14
  tail call fastcc void @scale_update(ptr noundef nonnull %0, i32 noundef 256, i32 noundef 256)
  %.pre = load i16, ptr %4, align 4
  br label %lv_image_set_scale.exit

lv_image_set_scale.exit:                          ; preds = %22, %18, %10
  %23 = phi i16 [ %.pre, %22 ], [ %5, %18 ], [ %5, %10 ]
  %24 = trunc i32 %1 to i16
  %25 = shl i16 %24, 8
  %26 = and i16 %25, 3840
  %27 = and i16 %23, -3841
  %28 = or disjoint i16 %27, %26
  store i16 %28, ptr %4, align 4
  tail call fastcc void @update_align(ptr noundef nonnull %0)
  tail call void @lv_obj_invalidate(ptr noundef nonnull %0) #6
  br label %29

29:                                               ; preds = %3, %lv_image_set_scale.exit
  ret void
}